; Function Attrs: mustprogress nounwind uwtable
define dso_local void @_ZN4node10MapKVStore6DeleteEPN2v87IsolateENS1_5LocalINS1_6StringEEE(ptr noundef nonnull align 8 dereferenceable(104) %this, ptr noundef %isolate, ptr %key.coerce) unnamed_addr #3 align 2 {
entry:
  %str = alloca %"class.node::Utf8Value", align 8
  %ref.tmp = alloca %"class.std::__cxx11::basic_string", align 8
  %ref.tmp12 = alloca %"class.std::allocator", align 1
  %mutex_ = getelementptr inbounds i8, ptr %this, i64 8
  tail call void @uv_mutex_lock(ptr noundef nonnull %mutex_) #20
  call void @_ZN4node9Utf8ValueC1EPN2v87IsolateENS1_5LocalINS1_5ValueEEE(ptr noundef nonnull align 8 dereferenceable(1048) %str, ptr noundef %isolate, ptr %key.coerce) #20
  %map_ = getelementptr inbounds i8, ptr %this, i64 48
  %buf_.i = getelementptr inbounds i8, ptr %str, i64 16
  %0 = load ptr, ptr %buf_.i, align 8
  %1 = load i64, ptr %str, align 8
  call void @_ZNSaIcEC1Ev(ptr noundef nonnull align 1 dereferenceable(1) %ref.tmp12) #20
  call void @_ZNSt7__cxx1112basic_stringIcSt11char_traitsIcESaIcEEC1EPKcmRKS3_(ptr noundef nonnull align 8 dereferenceable(32) %ref.tmp, ptr noundef %0, i64 noundef %1, ptr noundef nonnull align 1 dereferenceable(1) %ref.tmp12) #20
  %call.i.i = call noundef i64 @_ZNSt10_HashtableINSt7__cxx1112basic_stringIcSt11char_traitsIcESaIcEEESt4pairIKS5_S5_ESaIS8_ENSt8__detail10_Select1stESt8equal_toIS5_ESt4hashIS5_ENSA_18_Mod_range_hashingENSA_20_Default_ranged_hashENSA_20_Prime_rehash_policyENSA_17_Hashtable_traitsILb1ELb0ELb1EEEE8_M_eraseESt17integral_constantIbLb1EERS7_(ptr noundef nonnull align 8 dereferenceable(56) %map_, ptr noundef nonnull align 8 dereferenceable(32) %ref.tmp)
  call void @_ZNSt7__cxx1112basic_stringIcSt11char_traitsIcESaIcEED1Ev(ptr noundef nonnull align 8 dereferenceable(32) %ref.tmp) #20
  call void @_ZNSaIcED1Ev(ptr noundef nonnull align 1 dereferenceable(1) %ref.tmp12) #20
  %2 = load ptr, ptr %buf_.i, align 8
  %cmp.i.i.i.i = icmp ne ptr %2, null
  %buf_st_.i.i.i = getelementptr inbounds i8, ptr %str, i64 24
  %cmp.i.i.i = icmp ne ptr %2, %buf_st_.i.i.i
  %3 = select i1 %cmp.i.i.i.i, i1 %cmp.i.i.i, i1 false
  br i1 %3, label %if.then.i.i, label %_ZN4node9Utf8ValueD2Ev.exit

if.then.i.i:                                      ; preds = %entry
  call void @free(ptr noundef nonnull %2) #20
  br label %_ZN4node9Utf8ValueD2Ev.exit

_ZN4node9Utf8ValueD2Ev.exit:                      ; preds = %entry, %if.then.i.i
  call void @uv_mutex_unlock(ptr noundef nonnull %mutex_) #20
  ret void
}